(imodel.host_database
DB_Model
p0
(dp1
S'hosts'
p2
(lp3
(imodel.host_model
host
p4
(dp5
S'ip'
p6
S'53.246.60.35'
p7
sS'comments'
p8
S'This is a test host'
p9
sS'id'
p10
S'54'
p11
sS'num_ports'
p12
S'3'
p13
sS'purpose'
p14
S'Switch'
p15
sS'OS'
p16
S'Linux'
p17
sS'ports'
p18
(lp19
(I53
S'DNS'
p20
S'DNS info'
p21
S'FILTERED'
p22
tp23
a(I443
S'HTTPS'
p24
S'HTTPS info'
p25
g22
tp26
ag26
asba(imodel.host_model
host
p27
(dp28
g6
S'123.108.15.148'
p29
sg8
g9
sg10
S'112'
p30
sg12
g13
sg14
S'Firewall'
p31
sg16
S'Cisco'
p32
sg18
(lp33
(I20
S'telnet'
p34
S'telnet info'
p35
S'OPEN'
p36
tp37
a(I53
g20
S'DNS info'
p38
g36
tp39
a(I80
S'HTTP'
p40
S'HTTP info'
p41
g36
tp42
asba(imodel.host_model
host
p43
(dp44
g6
S'112.166.67.29'
p45
sg8
g9
sg10
S'133'
p46
sg12
g13
sg14
S'Auth'
p47
sg16
g32
sg18
(lp48
g37
a(I22
S'ssh'
p49
S'sshd info'
p50
g22
tp51
ag51
asba(imodel.host_model
host
p52
(dp53
g6
S'15.216.231.166'
p54
sg8
g9
sg10
S'189'
p55
sg12
g13
sg14
g47
sg16
g32
sg18
(lp56
g51
ag51
ag26
asba(imodel.host_model
host
p57
(dp58
g6
S'162.11.33.17'
p59
sg8
g9
sg10
S'163'
p60
sg12
g13
sg14
g31
sg16
S'Windows'
p61
sg18
(lp62
(I20
g34
S'telnet info'
p63
g22
tp64
ag37
ag23
asba(imodel.host_model
host
p65
(dp66
g6
S'209.145.106.216'
p67
sg8
g9
sg10
S'150'
p68
sg12
g13
sg14
S'DB'
p69
sg16
g17
sg18
(lp70
(I22
g49
S'sshd info'
p71
g36
tp72
ag72
ag26
asba(imodel.host_model
host
p73
(dp74
g6
S'147.200.100.213'
p75
sg8
g9
sg10
S'127'
p76
sg12
g13
sg14
g69
sg16
g32
sg18
(lp77
g37
ag72
a(I80
g40
S'HTTP info'
p78
g22
tp79
asba(imodel.host_model
host
p80
(dp81
g6
S'176.135.169.130'
p82
sg8
g9
sg10
S'197'
p83
sg12
g13
sg14
g15
sg16
g17
sg18
(lp84
g51
ag72
a(I443
g24
S'HTTPS info'
p85
g36
tp86
asba(imodel.host_model
host
p87
(dp88
g6
S'250.30.142.219'
p89
sg8
g9
sg10
S'139'
p90
sg12
g13
sg14
g31
sg16
S'HP-UX'
p91
sg18
(lp92
g64
ag39
ag39
asba(imodel.host_model
host
p93
(dp94
g6
S'63.191.6.64'
p95
sg8
g9
sg10
S'55'
p96
sg12
S'2'
p97
sg14
g47
sg16
g61
sg18
(lp98
g64
ag86
asba(imodel.host_model
host
p99
(dp100
g6
S'217.246.214.192'
p101
sg8
g9
sg10
S'30'
p102
sg12
g97
sg14
g69
sg16
g32
sg18
(lp103
g37
ag26
asba(imodel.host_model
host
p104
(dp105
g6
S'219.183.86.242'
p106
sg8
g9
sg10
S'111'
p107
sg12
g97
sg14
g15
sg16
g32
sg18
(lp108
g51
ag86
asba(imodel.host_model
host
p109
(dp110
g6
S'60.218.244.151'
p111
sg8
g9
sg10
S'123'
p112
sg12
g97
sg14
g31
sg16
g91
sg18
(lp113
g72
ag23
asba(imodel.host_model
host
p114
(dp115
g6
S'167.124.139.43'
p116
sg8
g9
sg10
S'76'
p117
sg12
g97
sg14
g15
sg16
g91
sg18
(lp118
g51
ag42
asba(imodel.host_model
host
p119
(dp120
g6
S'160.125.234.165'
p121
sg8
g9
sg10
S'77'
p122
sg12
g97
sg14
g31
sg16
g32
sg18
(lp123
g37
ag23
asba(imodel.host_model
host
p124
(dp125
g6
S'6.192.61.244'
p126
sg8
g9
sg10
S'42'
p127
sg12
g97
sg14
g15
sg16
g32
sg18
(lp128
g72
ag39
asba(imodel.host_model
host
p129
(dp130
g6
S'146.155.99.115'
p131
sg8
g9
sg10
S'103'
p132
sg12
g97
sg14
g69
sg16
g32
sg18
(lp133
g26
ag86
asba(imodel.host_model
host
p134
(dp135
g6
S'168.68.204.41'
p136
sg8
g9
sg10
S'80'
p137
sg12
S'1'
p138
sg14
g47
sg16
g17
sg18
(lp139
g72
asba(imodel.host_model
host
p140
(dp141
g6
S'199.241.119.248'
p142
sg8
g9
sg10
S'176'
p143
sg12
g138
sg14
g47
sg16
g17
sg18
(lp144
g86
asba(imodel.host_model
host
p145
(dp146
g6
S'189.83.124.237'
p147
sg8
g9
sg10
S'77'
p148
sg12
g138
sg14
g47
sg16
g32
sg18
(lp149
g86
asba(imodel.host_model
host
p150
(dp151
g6
S'130.179.250.168'
p152
sg8
g9
sg10
S'130'
p153
sg12
g138
sg14
g47
sg16
g17
sg18
(lp154
g23
asba(imodel.host_model
host
p155
(dp156
g6
S'208.173.215.13'
p157
sg8
g9
sg10
S'63'
p158
sg12
g138
sg14
g31
sg16
g32
sg18
(lp159
g64
asba(imodel.host_model
host
p160
(dp161
g6
S'83.190.45.55'
p162
sg8
g9
sg10
S'174'
p163
sg12
g138
sg14
g15
sg16
g61
sg18
(lp164
g86
asba(imodel.host_model
host
p165
(dp166
g6
S'137.85.17.228'
p167
sg8
g9
sg10
S'152'
p168
sg12
g138
sg14
g69
sg16
g32
sg18
(lp169
g26
asba(imodel.host_model
host
p170
(dp171
g6
S'126.170.27.102'
p172
sg8
g9
sg10
S'44'
p173
sg12
S'0'
p174
sg14
g31
sg16
g91
sg18
(lp175
sbasS'connected'
p176
I00
sS'view_toggle'
p177
g18
sb.