(imodel.host_database
DB_Model
p0
(dp1
S'hosts'
p2
(lp3
(imodel.host_model
host
p4
(dp5
S'ip'
p6
S'86.160.83.143'
p7
sS'comments'
p8
S'This is a test host'
p9
sS'id'
p10
S'2'
p11
sS'num_ports'
p12
S'4'
p13
sS'purpose'
p14
S'Switch'
p15
sS'OS'
p16
S'Cisco'
p17
sS'ports'
p18
(lp19
(I22
S'ssh'
p20
S'sshd info'
p21
S'FILTERED'
p22
tp23
a(I53
S'DNS'
p24
S'DNS info'
p25
S'OPEN'
p26
tp27
a(I80
S'HTTP'
p28
S'HTTP info'
p29
g26
tp30
ag30
asba(imodel.host_model
host
p31
(dp32
g6
S'121.77.204.6'
p33
sg8
g9
sg10
S'106'
p34
sg12
g13
sg14
S'DB'
p35
sg16
S'Linux'
p36
sg18
(lp37
g23
a(I22
g20
S'sshd info'
p38
g26
tp39
ag39
ag30
asba(imodel.host_model
host
p40
(dp41
g6
S'164.188.238.122'
p42
sg8
g9
sg10
S'185'
p43
sg12
g13
sg14
g35
sg16
g17
sg18
(lp44
(I20
S'telnet'
p45
S'telnet info'
p46
g22
tp47
a(I80
S'HTTP'
p48
S'HTTP info'
p49
g22
tp50
a(I443
S'HTTPS'
p51
S'HTTPS info'
p52
g22
tp53
a(I443
S'HTTPS'
p54
S'HTTPS info'
p55
g26
tp56
asba(imodel.host_model
host
p57
(dp58
g6
S'141.17.175.72'
p59
sg8
g9
sg10
S'115'
p60
sg12
S'3'
p61
sg14
g15
sg16
S'Windows'
p62
sg18
(lp63
(I20
S'telnet'
p64
S'telnet info'
p65
g26
tp66
ag50
ag56
asba(imodel.host_model
host
p67
(dp68
g6
S'113.200.145.179'
p69
sg8
g9
sg10
S'141'
p70
sg12
g61
sg14
g35
sg16
g62
sg18
(lp71
g39
ag53
ag53
asba(imodel.host_model
host
p72
(dp73
g6
S'251.20.25.175'
p74
sg8
g9
sg10
S'91'
p75
sg12
g61
sg14
S'Auth'
p76
sg16
g62
sg18
(lp77
g66
ag66
ag50
asba(imodel.host_model
host
p78
(dp79
g6
S'113.174.129.72'
p80
sg8
g9
sg10
S'19'
p81
sg12
g61
sg14
S'Firewall'
p82
sg16
g17
sg18
(lp83
g66
ag53
ag53
asba(imodel.host_model
host
p84
(dp85
g6
S'25.181.55.86'
p86
sg8
g9
sg10
S'136'
p87
sg12
g61
sg14
g82
sg16
g36
sg18
(lp88
g27
ag50
ag53
asba(imodel.host_model
host
p89
(dp90
g6
S'220.119.80.180'
p91
sg8
g9
sg10
S'56'
p92
sg12
g11
sg14
g15
sg16
g17
sg18
(lp93
g47
ag66
asba(imodel.host_model
host
p94
(dp95
g6
S'49.71.216.166'
p96
sg8
g9
sg10
S'112'
p97
sg12
g11
sg14
g76
sg16
g62
sg18
(lp98
(I53
S'DNS'
p99
S'DNS info'
p100
g22
tp101
ag50
asba(imodel.host_model
host
p102
(dp103
g6
S'68.198.249.140'
p104
sg8
g9
sg10
S'76'
p105
sg12
g11
sg14
g82
sg16
g36
sg18
(lp106
g39
ag39
asba(imodel.host_model
host
p107
(dp108
g6
S'138.249.60.248'
p109
sg8
g9
sg10
S'39'
p110
sg12
g11
sg14
g82
sg16
S'HP-UX'
p111
sg18
(lp112
g27
ag30
asba(imodel.host_model
host
p113
(dp114
g6
S'247.45.95.150'
p115
sg8
g9
sg10
S'132'
p116
sg12
g11
sg14
g82
sg16
g62
sg18
(lp117
g39
ag39
asba(imodel.host_model
host
p118
(dp119
g6
S'225.151.109.197'
p120
sg8
g9
sg10
S'65'
p121
sg12
g11
sg14
g82
sg16
g36
sg18
(lp122
g30
ag53
asba(imodel.host_model
host
p123
(dp124
g6
S'220.166.255.136'
p125
sg8
g9
sg10
S'100'
p126
sg12
g11
sg14
g15
sg16
g17
sg18
(lp127
g66
ag53
asba(imodel.host_model
host
p128
(dp129
g6
S'205.100.5.45'
p130
sg8
g9
sg10
S'173'
p131
sg12
g11
sg14
g76
sg16
g17
sg18
(lp132
g50
ag30
asba(imodel.host_model
host
p133
(dp134
g6
S'222.216.145.7'
p135
sg8
g9
sg10
S'96'
p136
sg12
S'1'
p137
sg14
g82
sg16
g36
sg18
(lp138
g66
asba(imodel.host_model
host
p139
(dp140
g6
S'67.244.223.159'
p141
sg8
g9
sg10
S'68'
p142
sg12
g137
sg14
g35
sg16
g36
sg18
(lp143
g27
asba(imodel.host_model
host
p144
(dp145
g6
S'58.200.139.156'
p146
sg8
g9
sg10
S'26'
p147
sg12
g137
sg14
g35
sg16
g62
sg18
(lp148
g56
asba(imodel.host_model
host
p149
(dp150
g6
S'123.119.92.195'
p151
sg8
g9
sg10
S'52'
p152
sg12
g137
sg14
g82
sg16
g17
sg18
(lp153
g30
asba(imodel.host_model
host
p154
(dp155
g6
S'136.137.49.158'
p156
sg8
g9
sg10
S'96'
p157
sg12
S'0'
p158
sg14
g15
sg16
g62
sg18
(lp159
sba(imodel.host_model
host
p160
(dp161
g6
S'199.140.76.202'
p162
sg8
g9
sg10
S'192'
p163
sg12
g158
sg14
g15
sg16
g36
sg18
(lp164
sba(imodel.host_model
host
p165
(dp166
g6
S'88.38.97.63'
p167
sg8
g9
sg10
S'21'
p168
sg12
g158
sg14
g76
sg16
g17
sg18
(lp169
sba(imodel.host_model
host
p170
(dp171
g6
S'138.27.247.114'
p172
sg8
g9
sg10
S'131'
p173
sg12
g158
sg14
g15
sg16
g62
sg18
(lp174
sba(imodel.host_model
host
p175
(dp176
g6
S'141.110.215.125'
p177
sg8
g9
sg10
S'140'
p178
sg12
g158
sg14
g35
sg16
g36
sg18
(lp179
sbasS'connected'
p180
I00
sS'view_toggle'
p181
g18
sb.