(imodel.host_database
DB_Model
p0
(dp1
S'hosts'
p2
(lp3
(imodel.host_model
host
p4
(dp5
S'ip'
p6
S'137.26.119.218'
p7
sS'comments'
p8
S'This is a test host'
p9
sS'id'
p10
S'105'
p11
sS'num_ports'
p12
S'3'
p13
sS'purpose'
p14
S'Auth'
p15
sS'OS'
p16
S'HP-UX'
p17
sS'ports'
p18
(lp19
(I53
S'DNS'
p20
S'DNS info'
p21
S'OPEN'
p22
tp23
a(I80
S'HTTP'
p24
S'HTTP info'
p25
S'FILTERED'
p26
tp27
ag27
asba(imodel.host_model
host
p28
(dp29
g6
S'54.66.24.100'
p30
sg8
g9
sg10
S'129'
p31
sg12
S'2'
p32
sg14
S'Firewall'
p33
sg16
S'Linux'
p34
sg18
(lp35
(I22
S'ssh'
p36
S'sshd info'
p37
g22
tp38
ag27
asba(imodel.host_model
host
p39
(dp40
g6
S'131.115.150.60'
p41
sg8
g9
sg10
S'114'
p42
sg12
g13
sg14
S'DB'
p43
sg16
S'Windows'
p44
sg18
(lp45
(I20
S'telnet'
p46
S'telnet info'
p47
g26
tp48
a(I53
g20
S'DNS info'
p49
g26
tp50
ag23
asba(imodel.host_model
host
p51
(dp52
g6
S'153.178.237.176'
p53
sg8
g9
sg10
S'180'
p54
sg12
g32
sg14
g15
sg16
g17
sg18
(lp55
g27
a(I443
S'HTTPS'
p56
S'HTTPS info'
p57
g26
tp58
asba(imodel.host_model
host
p59
(dp60
g6
S'101.222.185.63'
p61
sg8
g9
sg10
S'68'
p62
sg12
g32
sg14
g43
sg16
g17
sg18
(lp63
g50
ag27
asba(imodel.host_model
host
p64
(dp65
g6
S'189.114.49.117'
p66
sg8
g9
sg10
S'11'
p67
sg12
g32
sg14
g33
sg16
g17
sg18
(lp68
g48
a(I80
g24
S'HTTP info'
p69
g22
tp70
asba(imodel.host_model
host
p71
(dp72
g6
S'25.197.29.116'
p73
sg8
g9
sg10
S'154'
p74
sg12
S'1'
p75
sg14
g33
sg16
g34
sg18
(lp76
g38
asba(imodel.host_model
host
p77
(dp78
g6
S'85.92.16.132'
p79
sg8
g9
sg10
S'24'
p80
sg12
g13
sg14
S'Switch'
p81
sg16
g17
sg18
(lp82
(I22
g36
S'sshd info'
p83
g26
tp84
ag38
ag50
asba(imodel.host_model
host
p85
(dp86
g6
S'201.173.213.200'
p87
sg8
g9
sg10
S'128'
p88
sg12
g32
sg14
g81
sg16
g17
sg18
(lp89
g27
ag58
asba(imodel.host_model
host
p90
(dp91
g6
S'251.53.175.206'
p92
sg8
g9
sg10
S'81'
p93
sg12
g32
sg14
g43
sg16
g34
sg18
(lp94
g48
ag70
asba(imodel.host_model
host
p95
(dp96
g6
S'160.208.243.57'
p97
sg8
g9
sg10
S'144'
p98
sg12
g13
sg14
g15
sg16
g17
sg18
(lp99
g84
ag27
ag70
asba(imodel.host_model
host
p100
(dp101
g6
S'87.213.226.50'
p102
sg8
g9
sg10
S'99'
p103
sg12
g32
sg14
g43
sg16
g34
sg18
(lp104
g48
ag58
asba(imodel.host_model
host
p105
(dp106
g6
S'8.86.33.70'
p107
sg8
g9
sg10
S'88'
p108
sg12
g75
sg14
g33
sg16
g34
sg18
(lp109
g50
asba(imodel.host_model
host
p110
(dp111
g6
S'105.65.141.178'
p112
sg8
g9
sg10
S'13'
p113
sg12
S'0'
p114
sg14
g43
sg16
g44
sg18
(lp115
sba(imodel.host_model
host
p116
(dp117
g6
S'134.155.108.215'
p118
sg8
g9
sg10
S'171'
p119
sg12
g13
sg14
g43
sg16
g44
sg18
(lp120
g48
ag23
a(I443
g56
S'HTTPS info'
p121
g22
tp122
asba(imodel.host_model
host
p123
(dp124
g6
S'190.198.47.168'
p125
sg8
g9
sg10
S'136'
p126
sg12
g32
sg14
g43
sg16
g17
sg18
(lp127
g38
ag50
asba(imodel.host_model
host
p128
(dp129
g6
S'56.96.115.125'
p130
sg8
g9
sg10
S'191'
p131
sg12
g75
sg14
g15
sg16
g44
sg18
(lp132
g84
asba(imodel.host_model
host
p133
(dp134
g6
S'114.69.145.252'
p135
sg8
g9
sg10
S'182'
p136
sg12
g32
sg14
g15
sg16
g44
sg18
(lp137
g122
ag122
asba(imodel.host_model
host
p138
(dp139
g6
S'242.201.101.237'
p140
sg8
g9
sg10
S'78'
p141
sg12
g32
sg14
g43
sg16
g44
sg18
(lp142
g70
ag122
asba(imodel.host_model
host
p143
(dp144
g6
S'174.225.153.46'
p145
sg8
g9
sg10
S'121'
p146
sg12
g114
sg14
g33
sg16
S'Cisco'
p147
sg18
(lp148
sba(imodel.host_model
host
p149
(dp150
g6
S'2.236.111.174'
p151
sg8
g9
sg10
S'190'
p152
sg12
g32
sg14
g33
sg16
g147
sg18
(lp153
g48
ag23
asba(imodel.host_model
host
p154
(dp155
g6
S'28.244.210.188'
p156
sg8
g9
sg10
S'75'
p157
sg12
g32
sg14
g43
sg16
g44
sg18
(lp158
g23
ag58
asba(imodel.host_model
host
p159
(dp160
g6
S'142.201.211.35'
p161
sg8
g9
sg10
S'151'
p162
sg12
g13
sg14
g15
sg16
g147
sg18
(lp163
g27
ag70
ag122
asba(imodel.host_model
host
p164
(dp165
g6
S'112.163.67.208'
p166
sg8
g9
sg10
S'18'
p167
sg12
g75
sg14
g43
sg16
g147
sg18
(lp168
g27
asba(imodel.host_model
host
p169
(dp170
g6
S'6.251.5.170'
p171
sg8
g9
sg10
S'8'
p172
sg12
g13
sg14
g33
sg16
g147
sg18
(lp173
(I20
g46
S'telnet info'
p174
g22
tp175
ag70
ag70
asbasS'connected'
p176
I00
sS'view_toggle'
p177
g18
sb.